target datalayout = "e-m:e-p270:32:32-p271:32:32-p272:64:64-i64:64-i128:128-f80:128-n8:16:32:64-S128"
target triple = "x86_64-pc-linux-gnu"

; Function Attrs: nounwind ssp uwtable
define dso_local i32 @crypto_aead_aes256gcm_encrypt_afternm(ptr noundef nonnull %0, ptr noundef %1, ptr noundef %2, i64 noundef %3, ptr noundef %4, i64 noundef %5, ptr noundef %6, ptr noundef nonnull %7, ptr noundef nonnull %8) #0 {
  %10 = alloca ptr, align 8
  %11 = alloca ptr, align 8
  %12 = alloca ptr, align 8
  %13 = alloca i64, align 8
  %14 = alloca ptr, align 8
  %15 = alloca i64, align 8
  %16 = alloca ptr, align 8
  %17 = alloca ptr, align 8
  %18 = alloca ptr, align 8
  %19 = alloca i32, align 4
  store ptr %0, ptr %10, align 8
  store ptr %1, ptr %11, align 8
  store ptr %2, ptr %12, align 8
  store i64 %3, ptr %13, align 8
  store ptr %4, ptr %14, align 8
  store i64 %5, ptr %15, align 8
  store ptr %6, ptr %16, align 8
  store ptr %7, ptr %17, align 8
  store ptr %8, ptr %18, align 8
  call void @llvm.lifetime.start.p0(i64 4, ptr %19) #14
  %20 = load ptr, ptr %10, align 8
  %21 = load ptr, ptr %10, align 8
  %22 = load i64, ptr %13, align 8
  %23 = getelementptr i8, ptr %21, i64 %22
  %24 = load ptr, ptr %12, align 8
  %25 = load i64, ptr %13, align 8
  %26 = load ptr, ptr %14, align 8
  %27 = load i64, ptr %15, align 8
  %28 = load ptr, ptr %16, align 8
  %29 = load ptr, ptr %17, align 8
  %30 = load ptr, ptr %18, align 8
  %31 = call i32 @crypto_aead_aes256gcm_encrypt_detached_afternm(ptr noundef %20, ptr noundef %23, ptr noundef null, ptr noundef %24, i64 noundef %25, ptr noundef %26, i64 noundef %27, ptr noundef %28, ptr noundef %29, ptr noundef %30)
  store i32 %31, ptr %19, align 4
  %32 = load ptr, ptr %11, align 8
  %33 = icmp ne ptr %32, null
  br i1 %33, label %34, label %38

34:                                               ; preds = %9
  %35 = load i64, ptr %13, align 8
  %36 = add i64 %35, 16
  %37 = load ptr, ptr %11, align 8
  store i64 %36, ptr %37, align 8
  br label %38

38:                                               ; preds = %34, %9
  %39 = load i32, ptr %19, align 4
  call void @llvm.lifetime.end.p0(i64 4, ptr %19) #14
  ret i32 %39
}