; Function Attrs: nofree nounwind ssp uwtable
define dso_local range(i32 -1, 1) i32 @crypto_aead_aes256gcm_encrypt_afternm(ptr noundef nonnull %0, ptr noundef writeonly captures(address_is_null) %1, ptr noundef readonly captures(none) %2, i64 noundef %3, ptr noundef captures(address_is_null) %4, i64 noundef %5, ptr noundef readnone captures(none) %6, ptr noundef nonnull readonly captures(none) %7, ptr noundef nonnull readonly captures(none) %8) local_unnamed_addr #6 {
  %10 = getelementptr i8, ptr %0, i64 %3
  %11 = tail call i32 @crypto_aead_aes256gcm_encrypt_detached_afternm(ptr noundef %0, ptr noundef %10, ptr noundef null, ptr noundef %2, i64 noundef %3, ptr noundef %4, i64 noundef %5, ptr poison, ptr noundef %7, ptr noundef %8)
  %.not = icmp eq ptr %1, null
  br i1 %.not, label %14, label %12

12:                                               ; preds = %9
  %13 = add i64 %3, 16
  store i64 %13, ptr %1, align 8
  br label %14

14:                                               ; preds = %12, %9
  ret i32 %11
}